; Function Attrs: mustprogress nounwind uwtable
define internal void @_ZN7rocksdb12_GLOBAL__N_122LegacyBloomBitsBuilderD0Ev(ptr noundef nonnull align 8 dereferenceable(48) %this) unnamed_addr #0 align 2 personality ptr @__gxx_personality_v0 {
entry:
  store ptr getelementptr inbounds ({ [12 x ptr] }, ptr @_ZTVN7rocksdb12_GLOBAL__N_122LegacyBloomBitsBuilderE, i64 0, i32 0, i64 2), ptr %this, align 8
  %hash_entries_.i = getelementptr inbounds i8, ptr %this, i64 16
  %0 = load ptr, ptr %hash_entries_.i, align 8
  %tobool.not.i.i.i.i = icmp eq ptr %0, null
  br i1 %tobool.not.i.i.i.i, label %_ZN7rocksdb12_GLOBAL__N_122LegacyBloomBitsBuilderD2Ev.exit, label %if.then.i.i.i.i

if.then.i.i.i.i:                                  ; preds = %entry
  tail call void @_ZdlPv(ptr noundef nonnull %0) #31
  br label %_ZN7rocksdb12_GLOBAL__N_122LegacyBloomBitsBuilderD2Ev.exit

_ZN7rocksdb12_GLOBAL__N_122LegacyBloomBitsBuilderD2Ev.exit: ; preds = %entry, %if.then.i.i.i.i
  tail call void @_ZdlPv(ptr noundef nonnull %this) #31
  ret void
}